target datalayout = "e-m:e-p270:32:32-p271:32:32-p272:64:64-i64:64-i128:128-f80:128-n8:16:32:64-S128"
target triple = "x86_64-pc-linux-gnu"

%struct.child_err = type { i32, i32 }

@child_notifier = internal global i32 -1, align 4

; Function Attrs: nounwind uwtable
define internal void @child_die(i32 noundef %0) #0 {
  %2 = alloca i32, align 4
  %3 = alloca %struct.child_err, align 4
  store i32 %0, ptr %2, align 4, !tbaa !16
  call void @llvm.lifetime.start.p0(i64 8, ptr %3) #13
  %4 = load i32, ptr %2, align 4, !tbaa !16
  %5 = getelementptr inbounds nuw %struct.child_err, ptr %3, i32 0, i32 0
  store i32 %4, ptr %5, align 4, !tbaa !75
  %6 = call ptr @__errno_location() #15
  %7 = load i32, ptr %6, align 4, !tbaa !16
  %8 = getelementptr inbounds nuw %struct.child_err, ptr %3, i32 0, i32 1
  store i32 %7, ptr %8, align 4, !tbaa !77
  %9 = load i32, ptr @child_notifier, align 4, !tbaa !16
  %10 = call i64 @xwrite(i32 noundef %9, ptr noundef %3, i64 noundef 8)
  call void @_exit(i32 noundef 1) #16
  unreachable
}

; Function Attrs: nounwind uwtable
define internal void @child_dup2(i32 noundef %0, i32 noundef %1) #0 {
  %3 = alloca i32, align 4
  %4 = alloca i32, align 4
  store i32 %0, ptr %3, align 4, !tbaa !16
  store i32 %1, ptr %4, align 4, !tbaa !16
  %5 = load i32, ptr %3, align 4, !tbaa !16
  %6 = load i32, ptr %4, align 4, !tbaa !16
  %7 = call i32 @dup2(i32 noundef %5, i32 noundef %6) #13
  %8 = icmp slt i32 %7, 0
  br i1 %8, label %9, label %10

9:                                                ; preds = %2
  call void @child_die(i32 noundef 1)
  br label %10

10:                                               ; preds = %9, %2
  ret void
}