; Function Attrs: nounwind uwtable
define internal fastcc void @child_dup2(i32 noundef %0, i32 noundef range(i32 0, 3) %1) unnamed_addr #3 {
  %3 = alloca %struct.child_err, align 4
  %4 = tail call i32 @dup2(i32 noundef %0, i32 noundef %1) #21
  %5 = icmp slt i32 %4, 0
  br i1 %5, label %6, label %12

6:                                                ; preds = %2
  call void @llvm.lifetime.start.p0(i64 8, ptr nonnull %3) #21
  store i32 1, ptr %3, align 4, !tbaa !65
  %7 = tail call ptr @__errno_location() #23
  %8 = load i32, ptr %7, align 4, !tbaa !18
  %9 = getelementptr inbounds nuw i8, ptr %3, i64 4
  store i32 %8, ptr %9, align 4, !tbaa !67
  %10 = load i32, ptr @child_notifier, align 4, !tbaa !18
  %11 = call i64 @xwrite(i32 noundef %10, ptr noundef nonnull %3, i64 noundef 8) #21
  call void @_exit(i32 noundef 1) #24
  unreachable

12:                                               ; preds = %2
  ret void
}